; Function Attrs: nounwind uwtable
define internal i32 @anextawaitable_traverse(ptr noundef readonly captures(none) %0, ptr noundef readonly captures(none) %1, ptr noundef %2) #0 {
  %4 = getelementptr inbounds nuw i8, ptr %0, i64 16
  %5 = load ptr, ptr %4, align 8, !tbaa !100
  %.not = icmp eq ptr %5, null
  br i1 %.not, label %8, label %6

6:                                                ; preds = %3
  %7 = tail call i32 %1(ptr noundef nonnull %5, ptr noundef %2) #4
  %.not18.not = icmp eq i32 %7, 0
  br i1 %.not18.not, label %8, label %14

8:                                                ; preds = %6, %3
  %9 = getelementptr inbounds nuw i8, ptr %0, i64 24
  %10 = load ptr, ptr %9, align 8, !tbaa !102
  %.not19 = icmp eq ptr %10, null
  br i1 %.not19, label %13, label %11

11:                                               ; preds = %8
  %12 = tail call i32 %1(ptr noundef nonnull %10, ptr noundef %2) #4
  %.not20.not = icmp eq i32 %12, 0
  br i1 %.not20.not, label %13, label %14

13:                                               ; preds = %11, %8
  br label %14

14:                                               ; preds = %11, %6, %13
  %.1 = phi i32 [ %7, %6 ], [ %12, %11 ], [ 0, %13 ]
  ret i32 %.1
}